EXPORTS 
	??$SuiteSparseQR@N@@YAPEAUcholmod_dense_struct@@HNPEAUcholmod_sparse_struct@@PEAU0@PEAUcholmod_common_struct@@@Z
	??$SuiteSparseQR@N@@YAPEAUcholmod_dense_struct@@PEAUcholmod_sparse_struct@@PEAU0@PEAUcholmod_common_struct@@@Z
	??$SuiteSparseQR@N@@YAPEAUcholmod_sparse_struct@@HNPEAU0@0PEAUcholmod_common_struct@@@Z
	??$SuiteSparseQR@N@@YA_JHN_JHPEAUcholmod_sparse_struct@@1PEAUcholmod_dense_struct@@PEAPEAU0@PEAPEAU1@3PEAPEA_J354PEAUcholmod_common_struct@@@Z
	??$SuiteSparseQR@N@@YA_JHN_JPEAUcholmod_sparse_struct@@1PEAPEAU0@2PEAPEA_JPEAUcholmod_common_struct@@@Z
	??$SuiteSparseQR@N@@YA_JHN_JPEAUcholmod_sparse_struct@@PEAPEAU0@2PEAPEA_JPEAUcholmod_common_struct@@@Z
	??$SuiteSparseQR@N@@YA_JHN_JPEAUcholmod_sparse_struct@@PEAPEAU0@PEAPEA_J23PEAPEAUcholmod_dense_struct@@PEAUcholmod_common_struct@@@Z
	??$SuiteSparseQR@N@@YA_JHN_JPEAUcholmod_sparse_struct@@PEAPEAU0@PEAPEA_JPEAUcholmod_common_struct@@@Z
	??$SuiteSparseQR@N@@YA_JHN_JPEAUcholmod_sparse_struct@@PEAUcholmod_dense_struct@@PEAPEAU1@PEAPEAU0@PEAPEA_JPEAUcholmod_common_struct@@@Z
	??$SuiteSparseQR@V?$complex@N@std@@@@YAPEAUcholmod_dense_struct@@HNPEAUcholmod_sparse_struct@@PEAU0@PEAUcholmod_common_struct@@@Z
	??$SuiteSparseQR@V?$complex@N@std@@@@YAPEAUcholmod_dense_struct@@PEAUcholmod_sparse_struct@@PEAU0@PEAUcholmod_common_struct@@@Z
	??$SuiteSparseQR@V?$complex@N@std@@@@YAPEAUcholmod_sparse_struct@@HNPEAU0@0PEAUcholmod_common_struct@@@Z
	??$SuiteSparseQR@V?$complex@N@std@@@@YA_JHN_JHPEAUcholmod_sparse_struct@@1PEAUcholmod_dense_struct@@PEAPEAU0@PEAPEAU1@3PEAPEA_J354PEAUcholmod_common_struct@@@Z
	??$SuiteSparseQR@V?$complex@N@std@@@@YA_JHN_JPEAUcholmod_sparse_struct@@1PEAPEAU0@2PEAPEA_JPEAUcholmod_common_struct@@@Z
	??$SuiteSparseQR@V?$complex@N@std@@@@YA_JHN_JPEAUcholmod_sparse_struct@@PEAPEAU0@2PEAPEA_JPEAUcholmod_common_struct@@@Z
	??$SuiteSparseQR@V?$complex@N@std@@@@YA_JHN_JPEAUcholmod_sparse_struct@@PEAPEAU0@PEAPEA_J23PEAPEAUcholmod_dense_struct@@PEAUcholmod_common_struct@@@Z
	??$SuiteSparseQR@V?$complex@N@std@@@@YA_JHN_JPEAUcholmod_sparse_struct@@PEAPEAU0@PEAPEA_JPEAUcholmod_common_struct@@@Z
	??$SuiteSparseQR@V?$complex@N@std@@@@YA_JHN_JPEAUcholmod_sparse_struct@@PEAUcholmod_dense_struct@@PEAPEAU1@PEAPEAU0@PEAPEA_JPEAUcholmod_common_struct@@@Z
	??$SuiteSparseQR_factorize@N@@YAPEAU?$SuiteSparseQR_factorization@N@@HNPEAUcholmod_sparse_struct@@PEAUcholmod_common_struct@@@Z
	??$SuiteSparseQR_factorize@V?$complex@N@std@@@@YAPEAU?$SuiteSparseQR_factorization@V?$complex@N@std@@@@HNPEAUcholmod_sparse_struct@@PEAUcholmod_common_struct@@@Z
	??$SuiteSparseQR_free@N@@YAHPEAPEAU?$SuiteSparseQR_factorization@N@@PEAUcholmod_common_struct@@@Z
	??$SuiteSparseQR_free@V?$complex@N@std@@@@YAHPEAPEAU?$SuiteSparseQR_factorization@V?$complex@N@std@@@@PEAUcholmod_common_struct@@@Z
	??$SuiteSparseQR_min2norm@N@@YAPEAUcholmod_dense_struct@@HNPEAUcholmod_sparse_struct@@PEAU0@PEAUcholmod_common_struct@@@Z
	??$SuiteSparseQR_min2norm@N@@YAPEAUcholmod_sparse_struct@@HNPEAU0@0PEAUcholmod_common_struct@@@Z
	??$SuiteSparseQR_min2norm@V?$complex@N@std@@@@YAPEAUcholmod_dense_struct@@HNPEAUcholmod_sparse_struct@@PEAU0@PEAUcholmod_common_struct@@@Z
	??$SuiteSparseQR_min2norm@V?$complex@N@std@@@@YAPEAUcholmod_sparse_struct@@HNPEAU0@0PEAUcholmod_common_struct@@@Z
	??$SuiteSparseQR_numeric@N@@YAHNPEAUcholmod_sparse_struct@@PEAU?$SuiteSparseQR_factorization@N@@PEAUcholmod_common_struct@@@Z
	??$SuiteSparseQR_numeric@V?$complex@N@std@@@@YAHNPEAUcholmod_sparse_struct@@PEAU?$SuiteSparseQR_factorization@V?$complex@N@std@@@@PEAUcholmod_common_struct@@@Z
	??$SuiteSparseQR_qmult@N@@YAPEAUcholmod_dense_struct@@HPEAU?$SuiteSparseQR_factorization@N@@PEAU0@PEAUcholmod_common_struct@@@Z
	??$SuiteSparseQR_qmult@N@@YAPEAUcholmod_dense_struct@@HPEAUcholmod_sparse_struct@@PEAU0@PEA_J1PEAUcholmod_common_struct@@@Z
	??$SuiteSparseQR_qmult@N@@YAPEAUcholmod_sparse_struct@@HPEAU0@PEAUcholmod_dense_struct@@PEA_J0PEAUcholmod_common_struct@@@Z
	??$SuiteSparseQR_qmult@N@@YAPEAUcholmod_sparse_struct@@HPEAU?$SuiteSparseQR_factorization@N@@PEAU0@PEAUcholmod_common_struct@@@Z
	??$SuiteSparseQR_qmult@V?$complex@N@std@@@@YAPEAUcholmod_dense_struct@@HPEAU?$SuiteSparseQR_factorization@V?$complex@N@std@@@@PEAU0@PEAUcholmod_common_struct@@@Z
	??$SuiteSparseQR_qmult@V?$complex@N@std@@@@YAPEAUcholmod_dense_struct@@HPEAUcholmod_sparse_struct@@PEAU0@PEA_J1PEAUcholmod_common_struct@@@Z
	??$SuiteSparseQR_qmult@V?$complex@N@std@@@@YAPEAUcholmod_sparse_struct@@HPEAU0@PEAUcholmod_dense_struct@@PEA_J0PEAUcholmod_common_struct@@@Z
	??$SuiteSparseQR_qmult@V?$complex@N@std@@@@YAPEAUcholmod_sparse_struct@@HPEAU?$SuiteSparseQR_factorization@V?$complex@N@std@@@@PEAU0@PEAUcholmod_common_struct@@@Z
	??$SuiteSparseQR_solve@N@@YAPEAUcholmod_dense_struct@@HPEAU?$SuiteSparseQR_factorization@N@@PEAU0@PEAUcholmod_common_struct@@@Z
	??$SuiteSparseQR_solve@N@@YAPEAUcholmod_sparse_struct@@HPEAU?$SuiteSparseQR_factorization@N@@PEAU0@PEAUcholmod_common_struct@@@Z
	??$SuiteSparseQR_solve@V?$complex@N@std@@@@YAPEAUcholmod_dense_struct@@HPEAU?$SuiteSparseQR_factorization@V?$complex@N@std@@@@PEAU0@PEAUcholmod_common_struct@@@Z
	??$SuiteSparseQR_solve@V?$complex@N@std@@@@YAPEAUcholmod_sparse_struct@@HPEAU?$SuiteSparseQR_factorization@V?$complex@N@std@@@@PEAU0@PEAUcholmod_common_struct@@@Z
	??$SuiteSparseQR_symbolic@N@@YAPEAU?$SuiteSparseQR_factorization@N@@HHPEAUcholmod_sparse_struct@@PEAUcholmod_common_struct@@@Z
	??$SuiteSparseQR_symbolic@V?$complex@N@std@@@@YAPEAU?$SuiteSparseQR_factorization@V?$complex@N@std@@@@HHPEAUcholmod_sparse_struct@@PEAUcholmod_common_struct@@@Z
	??$free_Work@N@@YAXPEAU?$spqr_work@N@@_J111PEAUcholmod_common_struct@@@Z
	??$free_Work@V?$complex@N@std@@@@YAXPEAU?$spqr_work@V?$complex@N@std@@@@_J111PEAUcholmod_common_struct@@@Z
	??$get_Work@N@@YAPEAU?$spqr_work@N@@_J0000PEA_JPEAUcholmod_common_struct@@@Z
	??$get_Work@V?$complex@N@std@@@@YAPEAU?$spqr_work@V?$complex@N@std@@@@_J0000PEA_JPEAUcholmod_common_struct@@@Z
	??$spqr_1colamd@N@@YAHHN_JPEAUcholmod_sparse_struct@@PEAPEA_J22PEAPEAU0@PEA_J4PEAUcholmod_common_struct@@@Z
	??$spqr_1colamd@V?$complex@N@std@@@@YAHHN_JPEAUcholmod_sparse_struct@@PEAPEA_J22PEAPEAU0@PEA_J4PEAUcholmod_common_struct@@@Z
	??$spqr_1factor@N@@YAPEAU?$SuiteSparseQR_factorization@N@@HN_JHPEAUcholmod_sparse_struct@@0PEA_J2PEANPEAUcholmod_common_struct@@@Z
	??$spqr_1factor@V?$complex@N@std@@@@YAPEAU?$SuiteSparseQR_factorization@V?$complex@N@std@@@@HN_JHPEAUcholmod_sparse_struct@@0PEA_J2PEAV?$complex@N@std@@PEAUcholmod_common_struct@@@Z
	??$spqr_1fixed@N@@YAHN_JPEAUcholmod_sparse_struct@@PEAPEA_J2PEAPEAU0@PEA_J4PEAUcholmod_common_struct@@@Z
	??$spqr_1fixed@V?$complex@N@std@@@@YAHN_JPEAUcholmod_sparse_struct@@PEAPEA_J2PEAPEAU0@PEA_J4PEAUcholmod_common_struct@@@Z
	??$spqr_append@N@@YAHPEANPEA_JPEAUcholmod_sparse_struct@@1PEAUcholmod_common_struct@@@Z
	??$spqr_append@V?$complex@N@std@@@@YAHPEAV?$complex@N@std@@PEA_JPEAUcholmod_sparse_struct@@1PEAUcholmod_common_struct@@@Z
	??$spqr_assemble@N@@YAX_J0HPEA_J1111111PEAN11PEAPEAN111121@Z
	??$spqr_assemble@V?$complex@N@std@@@@YAX_J0HPEA_J1111111PEAV?$complex@N@std@@11PEAPEAV01@111121@Z
	??$spqr_cpack@N@@YA_J_J000PEAN1@Z
	??$spqr_cpack@V?$complex@N@std@@@@YA_J_J000PEAV?$complex@N@std@@1@Z
	??$spqr_factorize@N@@YAPEAU?$spqr_numeric@N@@PEAPEAUcholmod_sparse_struct@@_JN1PEAUspqr_symbolic@@PEAUcholmod_common_struct@@@Z
	??$spqr_factorize@V?$complex@N@std@@@@YAPEAU?$spqr_numeric@V?$complex@N@std@@@@PEAPEAUcholmod_sparse_struct@@_JN1PEAUspqr_symbolic@@PEAUcholmod_common_struct@@@Z
	??$spqr_freefac@N@@YAXPEAPEAU?$SuiteSparseQR_factorization@N@@PEAUcholmod_common_struct@@@Z
	??$spqr_freefac@V?$complex@N@std@@@@YAXPEAPEAU?$SuiteSparseQR_factorization@V?$complex@N@std@@@@PEAUcholmod_common_struct@@@Z
	??$spqr_freenum@N@@YAXPEAPEAU?$spqr_numeric@N@@PEAUcholmod_common_struct@@@Z
	??$spqr_freenum@V?$complex@N@std@@@@YAXPEAPEAU?$spqr_numeric@V?$complex@N@std@@@@PEAUcholmod_common_struct@@@Z
	??$spqr_front@N@@YA_J_J00N00PEANPEA_JPEAD1111PEAUcholmod_common_struct@@@Z
	??$spqr_front@V?$complex@N@std@@@@YA_J_J00N00PEAV?$complex@N@std@@PEA_JPEAD11PEAN4PEAUcholmod_common_struct@@@Z
	??$spqr_happly@N@@YAXH_J00PEA_J1PEAN22001122PEAUcholmod_common_struct@@@Z
	??$spqr_happly@V?$complex@N@std@@@@YAXH_J00PEA_J1PEAV?$complex@N@std@@22001122PEAUcholmod_common_struct@@@Z
	??$spqr_hpinv@N@@YAXPEAUspqr_symbolic@@PEAU?$spqr_numeric@N@@PEA_J@Z
	??$spqr_hpinv@V?$complex@N@std@@@@YAXPEAUspqr_symbolic@@PEAU?$spqr_numeric@V?$complex@N@std@@@@PEA_J@Z
	??$spqr_kernel@N@@YAX_JPEAU?$spqr_blob@N@@@Z
	??$spqr_kernel@V?$complex@N@std@@@@YAX_JPEAU?$spqr_blob@V?$complex@N@std@@@@@Z
	??$spqr_larftb@N@@YAXH_J0000PEAN111PEAUcholmod_common_struct@@@Z
	??$spqr_larftb@V?$complex@N@std@@@@YAXH_J0000PEAV?$complex@N@std@@111PEAUcholmod_common_struct@@@Z
	??$spqr_maxcolnorm@N@@YANPEAUcholmod_sparse_struct@@PEAUcholmod_common_struct@@@Z
	??$spqr_maxcolnorm@V?$complex@N@std@@@@YANPEAUcholmod_sparse_struct@@PEAUcholmod_common_struct@@@Z
	??$spqr_panel@N@@YAXH_J000PEA_JPEAN20222PEAUcholmod_common_struct@@@Z
	??$spqr_panel@V?$complex@N@std@@@@YAXH_J000PEA_JPEAV?$complex@N@std@@20222PEAUcholmod_common_struct@@@Z
	??$spqr_private_Happly@N@@YAXHPEAU?$SuiteSparseQR_factorization@N@@_J11PEAN2PEA_J3222PEAUcholmod_common_struct@@@Z
	??$spqr_private_Happly@V?$complex@N@std@@@@YAXHPEAU?$SuiteSparseQR_factorization@V?$complex@N@std@@@@_J11PEAV?$complex@N@std@@2PEA_J3222PEAUcholmod_common_struct@@@Z
	??$spqr_private_apply1@N@@YAX_J00PEANN11PEAUcholmod_common_struct@@@Z
	??$spqr_private_apply1@V?$complex@N@std@@@@YAX_J00PEAV?$complex@N@std@@V01@11PEAUcholmod_common_struct@@@Z
	??$spqr_private_do_panel@N@@YAXH_J00PEA_J0011PEAN212222PEAUcholmod_common_struct@@@Z
	??$spqr_private_do_panel@V?$complex@N@std@@@@YAXH_J00PEA_J0011PEAV?$complex@N@std@@212222PEAUcholmod_common_struct@@@Z
	??$spqr_private_get_H_vectors@N@@YA_J_JPEAU?$SuiteSparseQR_factorization@N@@PEANPEA_J3PEAUcholmod_common_struct@@@Z
	??$spqr_private_get_H_vectors@V?$complex@N@std@@@@YA_J_JPEAU?$SuiteSparseQR_factorization@V?$complex@N@std@@@@PEAV?$complex@N@std@@PEA_J3PEAUcholmod_common_struct@@@Z
	??$spqr_private_house@N@@YAN_JPEANPEAUcholmod_common_struct@@@Z
	??$spqr_private_house@V?$complex@N@std@@@@YA?AV?$complex@N@std@@_JPEAV01@PEAUcholmod_common_struct@@@Z
	??$spqr_private_load_H_vectors@N@@YA_J_J0PEA_J1PEAN2PEAUcholmod_common_struct@@@Z
	??$spqr_private_load_H_vectors@V?$complex@N@std@@@@YA_J_J0PEA_J1PEAV?$complex@N@std@@2PEAUcholmod_common_struct@@@Z
	??$spqr_private_rtsolve@N@@YAXPEAU?$SuiteSparseQR_factorization@N@@H_J1PEAN2PEAUcholmod_common_struct@@@Z
	??$spqr_private_rtsolve@V?$complex@N@std@@@@YAXPEAU?$SuiteSparseQR_factorization@V?$complex@N@std@@@@H_J1PEAV?$complex@N@std@@2PEAUcholmod_common_struct@@@Z
	??$spqr_rconvert@N@@YAXPEAUspqr_symbolic@@PEAU?$spqr_numeric@N@@_J22HPEA_J3PEAN3343344@Z
	??$spqr_rconvert@V?$complex@N@std@@@@YAXPEAUspqr_symbolic@@PEAU?$spqr_numeric@V?$complex@N@std@@@@_J22HPEA_J3PEAV?$complex@N@std@@3343344@Z
	??$spqr_rcount@N@@YAXPEAUspqr_symbolic@@PEAU?$spqr_numeric@N@@_J22HPEA_J333@Z
	??$spqr_rcount@V?$complex@N@std@@@@YAXPEAUspqr_symbolic@@PEAU?$spqr_numeric@V?$complex@N@std@@@@_J22HPEA_J333@Z
	??$spqr_rhpack@N@@YA_JH_J00PEA_JPEAN21@Z
	??$spqr_rhpack@V?$complex@N@std@@@@YA_JH_J00PEA_JPEAV?$complex@N@std@@21@Z
	??$spqr_rmap@N@@YAHPEAU?$SuiteSparseQR_factorization@N@@PEAUcholmod_common_struct@@@Z
	??$spqr_rmap@V?$complex@N@std@@@@YAHPEAU?$SuiteSparseQR_factorization@V?$complex@N@std@@@@PEAUcholmod_common_struct@@@Z
	??$spqr_rsolve@N@@YAXPEAU?$SuiteSparseQR_factorization@N@@H_J1PEAN2PEAPEANPEA_J2PEAUcholmod_common_struct@@@Z
	??$spqr_rsolve@V?$complex@N@std@@@@YAXPEAU?$SuiteSparseQR_factorization@V?$complex@N@std@@@@H_J1PEAV?$complex@N@std@@2PEAPEAV12@PEA_J2PEAUcholmod_common_struct@@@Z
	??$spqr_stranspose2@N@@YAXPEAUcholmod_sparse_struct@@PEA_J11PEAN1@Z
	??$spqr_stranspose2@V?$complex@N@std@@@@YAXPEAUcholmod_sparse_struct@@PEA_J11PEAV?$complex@N@std@@1@Z
	??$spqr_tol@N@@YANPEAUcholmod_sparse_struct@@PEAUcholmod_common_struct@@@Z
	??$spqr_tol@V?$complex@N@std@@@@YANPEAUcholmod_sparse_struct@@PEAUcholmod_common_struct@@@Z
	??$spqr_trapezoidal@N@@YA_J_JPEA_J1PEAN01HPEAPEA_J3PEAPEAN3PEAUcholmod_common_struct@@@Z
	??$spqr_trapezoidal@V?$complex@N@std@@@@YA_J_JPEA_J1PEAV?$complex@N@std@@01HPEAPEA_J3PEAPEAV01@3PEAUcholmod_common_struct@@@Z
	??$spqr_type@N@@YAHXZ
	??$spqr_type@V?$complex@N@std@@@@YAHXZ
	?spqr_analyze@@YAPEAUspqr_symbolic@@PEAUcholmod_sparse_struct@@HPEA_JHHPEAUcholmod_common_struct@@@Z
	?spqr_csize@@YA_J_JPEA_J11@Z
	?spqr_cumsum@@YA_J_JPEA_J@Z
	?spqr_fcsize@@YA_J_J000@Z
	?spqr_freesym@@YAXPEAPEAUspqr_symbolic@@PEAUcholmod_common_struct@@@Z
	?spqr_fsize@@YA_J_JPEA_J11111111@Z
	?spqr_happly_work@@YAHH_J00PEA_J0111@Z
	?spqr_private_larfb@@YAXDDDD_J00PEAN0101010PEAUcholmod_common_struct@@@Z
	?spqr_private_larfb@@YAXDDDD_J00PEAV?$complex@N@std@@0101010PEAUcholmod_common_struct@@@Z
	?spqr_private_larft@@YAXDD_J0PEAN0110PEAUcholmod_common_struct@@@Z
	?spqr_private_larft@@YAXDD_J0PEAV?$complex@N@std@@0110PEAUcholmod_common_struct@@@Z
	?spqr_shift@@YAX_JPEA_J@Z
	?spqr_stranspose1@@YAXPEAUcholmod_sparse_struct@@PEA_J11111@Z
	SuiteSparseQR_C
	SuiteSparseQR_C_QR
	SuiteSparseQR_C_backslash
	SuiteSparseQR_C_backslash_default
	SuiteSparseQR_C_backslash_sparse
	SuiteSparseQR_C_factorize
	SuiteSparseQR_C_free
	SuiteSparseQR_C_numeric
	SuiteSparseQR_C_qmult
	SuiteSparseQR_C_solve
	SuiteSparseQR_C_symbolic
